(dp1
S'osx'
p2
ccopy_reg
_reconstructor
p3
(ctwisted.plugin
CachedDropin
p4
c__builtin__
object
p5
NtRp6
(dp7
S'moduleName'
p8
S'wader.plugins.osx'
p9
sS'description'
p10
S'\nOSX plugin\n'
p11
sS'plugins'
p12
(lp13
g3
(ctwisted.plugin
CachedPlugin
p14
g5
NtRp15
(dp16
S'provided'
p17
(lp18
ctwisted.plugin
IPlugin
p19
acwader.common.interfaces
IOSPlugin
p20
asS'dropin'
p21
g6
sS'name'
p22
S'osxplugin'
p23
sg10
S'OSPlugin for OSX'
p24
sbasbsS'suse'
p25
g3
(g4
g5
NtRp26
(dp27
S'moduleName'
p28
S'wader.plugins.suse'
p29
sS'description'
p30
S'SLED OSPlugin'
p31
sS'plugins'
p32
(lp33
g3
(g14
g5
NtRp34
(dp35
S'provided'
p36
(lp37
g19
ag20
asS'dropin'
p38
g26
sS'name'
p39
S'susedistro'
p40
sg30
NsbasbsS'fedora'
p41
g3
(g4
g5
NtRp42
(dp43
g28
S'wader.plugins.fedora'
p44
sg30
S'Fedora OSPlugin'
p45
sg32
(lp46
g3
(g14
g5
NtRp47
(dp48
g36
(lp49
g19
ag20
asg38
g42
sg39
S'fedora'
p50
sg30
S'\n    OSPlugin for Fedora-based distros\n    '
p51
sbasbsS'oses'
p52
g3
(g4
g5
NtRp53
(dp54
g28
S'wader.plugins.oses'
p55
sg30
Nsg32
(lp56
sbsS'freebsd'
p57
g3
(g4
g5
NtRp58
(dp59
g28
S'wader.plugins.freebsd'
p60
sg30
S'\nFreeBSD-based OS plugin\n'
p61
sg32
(lp62
g3
(g14
g5
NtRp63
(dp64
g36
(lp65
g19
ag20
asg38
g58
sg39
S'freebsd7plugin'
p66
sg30
S'Plugin for FreeBSD 7'
p67
sbasbsS'ubuntu'
p68
g3
(g4
g5
NtRp69
(dp70
g28
S'wader.plugins.ubuntu'
p71
sg30
S'Ubuntu OSPlugin'
p72
sg32
(lp73
g3
(g14
g5
NtRp74
(dp75
g36
(lp76
g19
ag20
asg38
g69
sg39
S'ubuntu'
p77
sg30
S'A plugin to be used on Ubuntu systems'
p78
sbasbsS'debian'
p79
g3
(g4
g5
NtRp80
(dp81
g28
S'wader.plugins.debian'
p82
sg30
S'\nDebian OSPlugin\n'
p83
sg32
(lp84
g3
(g14
g5
NtRp85
(dp86
g36
(lp87
g19
ag20
asg38
g80
sg39
S'debian'
p88
sg30
Nsbasbs.