(dp1
S'osx'
p2
ccopy_reg
_reconstructor
p3
(ctwisted.plugin
CachedDropin
p4
c__builtin__
object
p5
NtRp6
(dp7
S'moduleName'
p8
S'wader.plugins.osx'
p9
sS'description'
p10
S'\nOSX plugin\n'
p11
sS'plugins'
p12
(lp13
g3
(ctwisted.plugin
CachedPlugin
p14
g5
NtRp15
(dp16
S'provided'
p17
(lp18
ctwisted.plugin
IPlugin
p19
acwader.common.interfaces
IOSPlugin
p20
asS'dropin'
p21
g6
sS'name'
p22
S'osxplugin'
p23
sg10
S'OSPlugin for OSX'
p24
sbasbsS'suse'
p25
g3
(g4
g5
NtRp26
(dp27
g8
S'wader.plugins.suse'
p28
sg10
S'SLED OSPlugin'
p29
sg12
(lp30
g3
(g14
g5
NtRp31
(dp32
g17
(lp33
g19
ag20
asg21
g26
sg22
S'susedistro'
p34
sg10
NsbasbsS'fedora'
p35
g3
(g4
g5
NtRp36
(dp37
g8
S'wader.plugins.fedora'
p38
sg10
S'Fedora OSPlugin'
p39
sg12
(lp40
g3
(g14
g5
NtRp41
(dp42
g17
(lp43
g19
ag20
asg21
g36
sg22
S'fedora'
p44
sg10
S'\n    OSPlugin for Fedora-based distros\n    '
p45
sbasbsS'oses'
p46
g3
(g4
g5
NtRp47
(dp48
g8
S'wader.plugins.oses'
p49
sg10
Nsg12
(lp50
sbsS'freebsd'
p51
g3
(g4
g5
NtRp52
(dp53
g8
S'wader.plugins.freebsd'
p54
sg10
S'\nFreeBSD-based OS plugin\n'
p55
sg12
(lp56
g3
(g14
g5
NtRp57
(dp58
g17
(lp59
g19
ag20
asg21
g52
sg22
S'freebsd7plugin'
p60
sg10
S'Plugin for FreeBSD 7'
p61
sbasbsS'ubuntu'
p62
g3
(g4
g5
NtRp63
(dp64
g8
S'wader.plugins.ubuntu'
p65
sg10
S'Ubuntu OSPlugin'
p66
sg12
(lp67
g3
(g14
g5
NtRp68
(dp69
g17
(lp70
g19
ag20
asg21
g63
sg22
S'ubuntu'
p71
sg10
S'A plugin to be used on Ubuntu systems'
p72
sbasbsS'debian'
p73
g3
(g4
g5
NtRp74
(dp75
g8
S'wader.plugins.debian'
p76
sg10
S'\nDebian OSPlugin\n'
p77
sg12
(lp78
g3
(g14
g5
NtRp79
(dp80
g17
(lp81
g19
ag20
asg21
g74
sg22
S'debian'
p82
sg10
Nsbasbs.