(dp1
S'zyb_provider'
p2
ccopy_reg
_reconstructor
p3
(ctwisted.plugin
CachedDropin
p4
c__builtin__
object
p5
NtRp6
(dp7
S'moduleName'
p8
S'wader.plugins.zyb_provider'
p9
sS'description'
p10
NsS'plugins'
p11
(lp12
g3
(ctwisted.plugin
CachedPlugin
p13
g5
NtRp14
(dp15
S'provided'
p16
(lp17
ctwisted.plugin
IPlugin
p18
acwader.common.interfaces
IContactProvider
p19
asS'dropin'
p20
g6
sS'name'
p21
S'zyb_provider'
p22
sg10
S'ZYB IContactProvider backend'
p23
sbasbsS'mm_provider'
p24
g3
(g4
g5
NtRp25
(dp26
g8
S'wader.plugins.mm_provider'
p27
sg10
Nsg11
(lp28
g3
(g13
g5
NtRp29
(dp30
g16
(lp31
g18
ag19
asg20
g25
sg21
S'mm_provider'
p32
sg10
S'ModemManager IContactProvider backend'
p33
sbasbsS'sqlite_provider'
p34
g3
(g4
g5
NtRp35
(dp36
g8
S'wader.plugins.sqlite_provider'
p37
sg10
Nsg11
(lp38
g3
(g13
g5
NtRp39
(dp40
g16
(lp41
g18
ag19
asg20
g35
sg21
S'sqlite_provider'
p42
sg10
S'SQLite IContactProvider backend'
p43
sbasbs.