(dp1
S'option_nozomi'
p2
ccopy_reg
_reconstructor
p3
(ctwisted.plugin
CachedDropin
p4
c__builtin__
object
p5
NtRp6
(dp7
S'moduleName'
p8
S'wader.plugins.option_nozomi'
p9
sS'description'
p10
NsS'plugins'
p11
(lp12
sbsS'huawei_k3765'
p13
g3
(g4
g5
NtRp14
(dp15
g8
S'wader.plugins.huawei_k3765'
p16
sg10
Nsg11
(lp17
g3
(ctwisted.plugin
CachedPlugin
p18
g5
NtRp19
(dp20
S'provided'
p21
(lp22
ctwisted.plugin
IPlugin
p23
acwader.common.interfaces
IDevicePlugin
p24
asS'dropin'
p25
g14
sS'name'
p26
S'huaweik3765'
p27
sg10
S"\n    :class:`~wader.common.plugin.DevicePlugin` for Huawei's Vodafone K3765\n    "
p28
sbasbsS'huawei_em770'
p29
g3
(g4
g5
NtRp30
(dp31
g8
S'wader.plugins.huawei_em770'
p32
sg10
Nsg11
(lp33
sbsS'huawei_e17X'
p34
g3
(g4
g5
NtRp35
(dp36
g8
S'wader.plugins.huawei_e17X'
p37
sg10
Nsg11
(lp38
sbsS'novatel_mother'
p39
g3
(g4
g5
NtRp40
(dp41
g8
S'wader.plugins.novatel_mother'
p42
sg10
Nsg11
(lp43
g3
(g18
g5
NtRp44
(dp45
g21
(lp46
g23
ag24
asg25
g40
sg26
S'novatelmother'
p47
sg10
S"\n    :class:`~wader.common.plugin.DevicePlugin` Novatel's Ovation/MiFi\n    devices that share a common PID\n    "
p48
sbasbsS'huawei_e160b'
p49
g3
(g4
g5
NtRp50
(dp51
g8
S'wader.plugins.huawei_e160b'
p52
sg10
Nsg11
(lp53
sbsS'option_icon401'
p54
g3
(g4
g5
NtRp55
(dp56
g8
S'wader.plugins.option_icon401'
p57
sg10
Nsg11
(lp58
g3
(g18
g5
NtRp59
(dp60
g21
(lp61
g23
ag24
asg25
g55
sg26
S'optionicon401'
p62
sg10
S":class:`wader.common.plugin.DevicePlugin` for Options's Icon 401"
p63
sbasbsS'option_gtmax36'
p64
g3
(g4
g5
NtRp65
(dp66
g8
S'wader.plugins.option_gtmax36'
p67
sg10
Nsg11
(lp68
g3
(g18
g5
NtRp69
(dp70
g21
(lp71
g23
ag24
asg25
g65
sg26
S'optiongtmax36'
p72
sg10
S":class:`~wader.common.plugin.DevicePlugin` for Option's GT Max 36"
p73
sbasbsS'novatel_s720'
p74
g3
(g4
g5
NtRp75
(dp76
g8
S'wader.plugins.novatel_s720'
p77
sg10
Nsg11
(lp78
sbsS'ericsson_md300'
p79
g3
(g4
g5
NtRp80
(dp81
g8
S'wader.plugins.ericsson_md300'
p82
sg10
Nsg11
(lp83
g3
(g18
g5
NtRp84
(dp85
g21
(lp86
g23
ag24
asg25
g80
sg26
S'ericssonMD300'
p87
sg10
S":class:`~wader.common.plugin.DBusDevicePlugin` for Ericsson's MD300"
p88
sbasbsS'huawei_e870'
p89
g3
(g4
g5
NtRp90
(dp91
g8
S'wader.plugins.huawei_e870'
p92
sg10
Nsg11
(lp93
sbsS'zte_mf632'
p94
g3
(g4
g5
NtRp95
(dp96
g8
S'wader.plugins.zte_mf632'
p97
sg10
Nsg11
(lp98
sbsS'sonyericsson_k610i'
p99
g3
(g4
g5
NtRp100
(dp101
g8
S'wader.plugins.sonyericsson_k610i'
p102
sg10
Nsg11
(lp103
g3
(g18
g5
NtRp104
(dp105
g21
(lp106
g23
ag24
asg25
g100
sg26
S'sonyericsson_k610iUSB'
p107
sg10
S':class:`~wader.common.plugin.DevicePlugin` for Sony Ericsson k610i'
p108
sbasbsS'huawei_e660a'
p109
g3
(g4
g5
NtRp110
(dp111
g8
S'wader.plugins.huawei_e660a'
p112
sg10
Nsg11
(lp113
sbsS'huawei_e220'
p114
g3
(g4
g5
NtRp115
(dp116
g8
S'wader.plugins.huawei_e220'
p117
sg10
Nsg11
(lp118
sbsS'huawei_b970'
p119
g3
(g4
g5
NtRp120
(dp121
g8
S'wader.plugins.huawei_b970'
p122
sg10
Nsg11
(lp123
sbsS'novatel_u630'
p124
g3
(g4
g5
NtRp125
(dp126
g8
S'wader.plugins.novatel_u630'
p127
sg10
Nsg11
(lp128
sbsS'zte_k3520'
p129
g3
(g4
g5
NtRp130
(dp131
g8
S'wader.plugins.zte_k3520'
p132
sg10
Nsg11
(lp133
g3
(g18
g5
NtRp134
(dp135
g21
(lp136
g23
ag24
asg25
g130
sg26
S'zte_k3520'
p137
sg10
S":class:`~wader.common.plugin.DevicePlugin` for ZTE's K3520"
p138
sbasbsS'huawei_e169'
p139
g3
(g4
g5
NtRp140
(dp141
g8
S'wader.plugins.huawei_e169'
p142
sg10
Nsg11
(lp143
g3
(g18
g5
NtRp144
(dp145
g21
(lp146
g23
ag24
asg25
g140
sg26
S'huaweiE169'
p147
sg10
S":class:`~wader.common.plugin.DevicePlugin` for Huawei's E169"
p148
sbasbsS'huawei_e180'
p149
g3
(g4
g5
NtRp150
(dp151
g8
S'wader.plugins.huawei_e180'
p152
sg10
Nsg11
(lp153
sbsS'option_icon225'
p154
g3
(g4
g5
NtRp155
(dp156
g8
S'wader.plugins.option_icon225'
p157
sg10
Nsg11
(lp158
g3
(g18
g5
NtRp159
(dp160
g21
(lp161
g23
ag24
asg25
g155
sg26
S'optionicon225'
p162
sg10
S":class:`wader.common.plugin.DevicePlugin` for Options's Icon 225"
p163
sbasbsS'huawei_k3565'
p164
g3
(g4
g5
NtRp165
(dp166
g8
S'wader.plugins.huawei_k3565'
p167
sg10
Nsg11
(lp168
sbsS'option_colt'
p169
g3
(g4
g5
NtRp170
(dp171
S'moduleName'
p172
S'wader.plugins.option_colt'
p173
sS'description'
p174
S'\nDevicePlugin for Option Colt\n\n(end of life reached)\n'
p175
sS'plugins'
p176
(lp177
g3
(g18
g5
NtRp178
(dp179
S'provided'
p180
(lp181
g23
ag24
asS'dropin'
p182
g170
sS'name'
p183
S'optioncolt'
p184
sg174
S':class:`~wader.common.plugin.DevicePlugin` for Option Colt'
p185
sbasbsS'option_e3730'
p186
g3
(g4
g5
NtRp187
(dp188
g8
S'wader.plugins.option_e3730'
p189
sg10
Nsg11
(lp190
g3
(g18
g5
NtRp191
(dp192
g21
(lp193
g23
ag24
asg25
g187
sg26
S'optione3730'
p194
sg10
S"\n    :class:`~wader.common.plugin.DevicePlugin` for Option's E3730\n    "
p195
sbasbsS'novatel_mifi2352'
p196
g3
(g4
g5
NtRp197
(dp198
g8
S'wader.plugins.novatel_mifi2352'
p199
sg10
Nsg11
(lp200
g3
(g18
g5
NtRp201
(dp202
g21
(lp203
g23
ag24
asg25
g197
sg26
S'novatelmifi2352'
p204
sg10
S"\n    :class:`~wader.common.plugin.DevicePlugin` for Novatel's MiFi 2352\n    "
p205
sbasbsS'huawei_exxx'
p206
g3
(g4
g5
NtRp207
(dp208
g8
S'wader.plugins.huawei_exxx'
p209
sg10
Nsg11
(lp210
g3
(g18
g5
NtRp211
(dp212
g21
(lp213
g23
ag24
asg25
g207
sg26
S'huaweiexxx1001'
p214
sg10
S":class:`~wader.common.plugin.DevicePlugin` for Huawei's 1001 family"
p215
sbag3
(g18
g5
NtRp216
(dp217
g21
(lp218
g23
ag24
asg25
g207
sg26
S'huaweiexxx1003'
p219
sg10
S":class:`~wader.common.plugin.DevicePlugin` for Huawei's 1003 family"
p220
sbasbsS'sonyericsson_k618i'
p221
g3
(g4
g5
NtRp222
(dp223
g8
S'wader.plugins.sonyericsson_k618i'
p224
sg10
Nsg11
(lp225
g3
(g18
g5
NtRp226
(dp227
g21
(lp228
g23
acwader.common.interfaces
IRemoteDevicePlugin
p229
ag24
asg25
g222
sg26
S'sonyericsson_k618i'
p230
sg10
S"\n    :class:`~wader.common.plugin.RemoteDevicePlugin` for SonyEricsson's K618i\n    "
p231
sbasbsS'zte_k2525'
p232
g3
(g4
g5
NtRp233
(dp234
g8
S'wader.plugins.zte_k2525'
p235
sg10
Nsg11
(lp236
g3
(g18
g5
NtRp237
(dp238
g21
(lp239
g23
ag24
asg25
g233
sg26
S'zte_k2525'
p240
sg10
S":class:`~wader.common.plugin.DevicePlugin` for ZTE's K2525"
p241
sbasbsS'option_etna'
p242
g3
(g4
g5
NtRp243
(dp244
g8
S'wader.plugins.option_etna'
p245
sg10
Nsg11
(lp246
g3
(g18
g5
NtRp247
(dp248
g21
(lp249
g23
ag24
asg25
g243
sg26
S'optionetna'
p250
sg10
S":class:`~wader.common.plugin.DevicePlugin` for Options's Etna"
p251
sbasbsS'huawei_k3520'
p252
g3
(g4
g5
NtRp253
(dp254
g8
S'wader.plugins.huawei_k3520'
p255
sg10
Nsg11
(lp256
sbsS'novatel_eu740'
p257
g3
(g4
g5
NtRp258
(dp259
g8
S'wader.plugins.novatel_eu740'
p260
sg10
Nsg11
(lp261
g3
(g18
g5
NtRp262
(dp263
g21
(lp264
g23
ag24
asg25
g258
sg26
S'novateleu740'
p265
sg10
S":class:`~wader.common.plugin.DevicePlugin` for Novatel's EU740"
p266
sbasbsS'dell_d5520'
p267
g3
(g4
g5
NtRp268
(dp269
g8
S'wader.plugins.dell_d5520'
p270
sg10
Nsg11
(lp271
g3
(g18
g5
NtRp272
(dp273
g21
(lp274
g23
ag24
asg25
g268
sg26
S'novateld5520'
p275
sg10
S":class:`~wader.common.plugin.DevicePlugin` for Novatel's Dell D5520"
p276
sbasbsS'zte_k3805'
p277
g3
(g4
g5
NtRp278
(dp279
g8
S'wader.plugins.zte_k3805'
p280
sg10
Nsg11
(lp281
g3
(g18
g5
NtRp282
(dp283
g21
(lp284
g23
ag24
asg25
g278
sg26
S'zte_k3805'
p285
sg10
S":class:`~wader.common.plugin.DevicePlugin` for ZTE's Vodafone K3805"
p286
sbasbsS'sierrawireless_875'
p287
g3
(g4
g5
NtRp288
(dp289
g172
S'wader.plugins.sierrawireless_875'
p290
sg174
S'DevicePlugin for the Sierra Wireless 875 datacard'
p291
sg176
(lp292
g3
(g18
g5
NtRp293
(dp294
g180
(lp295
g23
ag24
asg182
g288
sg183
S'sierrawireless875'
p296
sg174
S':class:`~wader.common.plugin.DevicePlugin` for SierraWireless 875'
p297
sbasbsS'sierrawireless_850'
p298
g3
(g4
g5
NtRp299
(dp300
g172
S'wader.plugins.sierrawireless_850'
p301
sg174
S'DevicePlugin for the Sierra Wireless 850 datacard'
p302
sg176
(lp303
g3
(g18
g5
NtRp304
(dp305
g180
(lp306
g23
ag24
asg182
g299
sg183
S'sierrawireless850'
p307
sg174
S':class:`~wader.common.plugin.DevicePlugin` for SierraWireless 850'
p308
sbasbsS'zte_mf651'
p309
g3
(g4
g5
NtRp310
(dp311
g8
S'wader.plugins.zte_mf651'
p312
sg10
Nsg11
(lp313
g3
(g18
g5
NtRp314
(dp315
g21
(lp316
g23
ag24
asg25
g310
sg26
S'zte_mf651'
p317
sg10
S":class:`~wader.common.plugin.DevicePlugin` for ZTE's MF651"
p318
sbasbsS'option_gtfusion'
p319
g3
(g4
g5
NtRp320
(dp321
g8
S'wader.plugins.option_gtfusion'
p322
sg10
Nsg11
(lp323
g3
(g18
g5
NtRp324
(dp325
g21
(lp326
g23
ag24
asg25
g320
sg26
S'optiongtfusion'
p327
sg10
S"\n    :class:`~wader.common.plugin.DevicePlugin` for Option's GT Fusion\n    "
p328
sbasbsS'huawei_k4505'
p329
g3
(g4
g5
NtRp330
(dp331
g8
S'wader.plugins.huawei_k4505'
p332
sg10
Nsg11
(lp333
g3
(g18
g5
NtRp334
(dp335
g21
(lp336
g23
ag24
asg25
g330
sg26
S'huaweik4505'
p337
sg10
S"\n    :class:`~wader.common.plugin.DevicePlugin` for Huawei's Vodafone K4505\n    "
p338
sbasbsS'onda_msa405hs'
p339
g3
(g4
g5
NtRp340
(dp341
g8
S'wader.plugins.onda_msa405hs'
p342
sg10
Nsg11
(lp343
g3
(g18
g5
NtRp344
(dp345
g21
(lp346
g23
ag24
asg25
g340
sg26
S'onda_msa405hs'
p347
sg10
S":class:`~wader.common.plugin.DevicePlugin` for ONDA's MSA405HS"
p348
sbasbsS'novatel_u740'
p349
g3
(g4
g5
NtRp350
(dp351
g8
S'wader.plugins.novatel_u740'
p352
sg10
Nsg11
(lp353
g3
(g18
g5
NtRp354
(dp355
g21
(lp356
g23
ag24
asg25
g350
sg26
S'novatelu740'
p357
sg10
S":class:`~wader.common.plugin.DevicePlugin` for Novatel's U740"
p358
sbasbsS'huawei_e270'
p359
g3
(g4
g5
NtRp360
(dp361
g8
S'wader.plugins.huawei_e270'
p362
sg10
Nsg11
(lp363
sbsS'huawei_e272'
p364
g3
(g4
g5
NtRp365
(dp366
g8
S'wader.plugins.huawei_e272'
p367
sg10
Nsg11
(lp368
sbsS'zte_mf620'
p369
g3
(g4
g5
NtRp370
(dp371
g8
S'wader.plugins.zte_mf620'
p372
sg10
Nsg11
(lp373
sbsS'option_gtfusionquadlite'
p374
g3
(g4
g5
NtRp375
(dp376
g8
S'wader.plugins.option_gtfusionquadlite'
p377
sg10
Nsg11
(lp378
g3
(g18
g5
NtRp379
(dp380
g21
(lp381
g23
ag24
asg25
g375
sg26
S'optiongtfusionquadlite'
p382
sg10
S"\n    :class:`~wader.common.plugin.DevicePlugin` for Option's GT Fusion Quad Lite\n    "
p383
sbasbsS'sierrawireless_mc8755'
p384
g3
(g4
g5
NtRp385
(dp386
g8
S'wader.plugins.sierrawireless_mc8755'
p387
sg10
S'\nDevicePlugin for the HP branded Sierra Wireless MC8755 embedded device\n'
p388
sg11
(lp389
g3
(g18
g5
NtRp390
(dp391
g21
(lp392
g23
ag24
asg25
g385
sg26
S'sierrawirelessmc8755'
p393
sg10
S':class:`~wader.common.plugin.DevicePlugin` for SierraWireless MC 8755'
p394
sbasbsS'option_k3760'
p395
g3
(g4
g5
NtRp396
(dp397
g8
S'wader.plugins.option_k3760'
p398
sg10
Nsg11
(lp399
g3
(g18
g5
NtRp400
(dp401
g21
(lp402
g23
ag24
asg25
g396
sg26
S'option_k3760'
p403
sg10
S":class:`wader.common.plugin.DevicePlugin` for Options's K3760"
p404
sbasbsS'huawei_e510'
p405
g3
(g4
g5
NtRp406
(dp407
g8
S'wader.plugins.huawei_e510'
p408
sg10
Nsg11
(lp409
g3
(g18
g5
NtRp410
(dp411
g21
(lp412
g23
ag24
asg25
g406
sg26
S'huaweie510'
p413
sg10
S":class:`~wader.common.plugin.DevicePlugin` for Huawei's E510"
p414
sbasbsS'huawei_e620'
p415
g3
(g4
g5
NtRp416
(dp417
g8
S'wader.plugins.huawei_e620'
p418
sg10
Nsg11
(lp419
sbsS'zte_k3571'
p420
g3
(g4
g5
NtRp421
(dp422
g8
S'wader.plugins.zte_k3571'
p423
sg10
Nsg11
(lp424
g3
(g18
g5
NtRp425
(dp426
g21
(lp427
g23
ag24
asg25
g421
sg26
S'zte_k3571'
p428
sg10
S":class:`~wader.common.plugin.DevicePlugin` for ZTE's K3571-Z"
p429
sbasbsS'zte_k3570'
p430
g3
(g4
g5
NtRp431
(dp432
g8
S'wader.plugins.zte_k3570'
p433
sg10
Nsg11
(lp434
g3
(g18
g5
NtRp435
(dp436
g21
(lp437
g23
ag24
asg25
g431
sg26
S'zte_k3570'
p438
sg10
S":class:`~wader.common.plugin.DevicePlugin` for ZTE's K3570-Z"
p439
sbasbsS'huawei_e660'
p440
g3
(g4
g5
NtRp441
(dp442
g8
S'wader.plugins.huawei_e660'
p443
sg10
Nsg11
(lp444
sbsS'zte_k3765'
p445
g3
(g4
g5
NtRp446
(dp447
g8
S'wader.plugins.zte_k3765'
p448
sg10
Nsg11
(lp449
g3
(g18
g5
NtRp450
(dp451
g21
(lp452
g23
ag24
asg25
g446
sg26
S'zte_k3765'
p453
sg10
S":class:`~wader.common.plugin.DevicePlugin` for ZTE's K3765-Z"
p454
sbasbsS'huawei_k3715'
p455
g3
(g4
g5
NtRp456
(dp457
g8
S'wader.plugins.huawei_k3715'
p458
sg10
Nsg11
(lp459
sbsS'ericsson_f3507g'
p460
g3
(g4
g5
NtRp461
(dp462
g8
S'wader.plugins.ericsson_f3507g'
p463
sg10
Nsg11
(lp464
g3
(g18
g5
NtRp465
(dp466
g21
(lp467
g23
ag24
asg25
g461
sg26
S'ericssonF3507G'
p468
sg10
S":class:`~wader.common.plugin.DevicePlugin} for Ericsson's F3507G"
p469
sbasbsS'huawei_e3735'
p470
g3
(g4
g5
NtRp471
(dp472
g8
S'wader.plugins.huawei_e3735'
p473
sg10
Nsg11
(lp474
sbsS'huawei_k2540'
p475
g3
(g4
g5
NtRp476
(dp477
g8
S'wader.plugins.huawei_k2540'
p478
sg10
Nsg11
(lp479
sbsS'zte_k3565'
p480
g3
(g4
g5
NtRp481
(dp482
g8
S'wader.plugins.zte_k3565'
p483
sg10
Nsg11
(lp484
g3
(g18
g5
NtRp485
(dp486
g21
(lp487
g23
ag24
asg25
g481
sg26
S'zte_k3565'
p488
sg10
S"\n    :class:`~wader.common.plugin.DevicePlugin` for ZTE's K3565-Z\n    "
p489
sbasbsS'zte_k4505'
p490
g3
(g4
g5
NtRp491
(dp492
g8
S'wader.plugins.zte_k4505'
p493
sg10
Nsg11
(lp494
g3
(g18
g5
NtRp495
(dp496
g21
(lp497
g23
ag24
asg25
g491
sg26
S'zte_k4505'
p498
sg10
S"\n    :class:`~wader.common.plugin.DevicePlugin` for ZTE's K4505\n    "
p499
sbasbsS'devices'
p500
g3
(g4
g5
NtRp501
(dp502
g8
S'wader.plugins.devices'
p503
sg10
Nsg11
(lp504
sbsS'novatel_eu870d'
p505
g3
(g4
g5
NtRp506
(dp507
g8
S'wader.plugins.novatel_eu870d'
p508
sg10
Nsg11
(lp509
g3
(g18
g5
NtRp510
(dp511
g21
(lp512
g23
ag24
asg25
g506
sg26
S'novateleu870d'
p513
sg10
S"\n    :class:`~wader.common.plugin.DevicePlugin` for Novatel's EU870D MiniCard\n    "
p514
sbasbsS'novatel_xu870'
p515
g3
(g4
g5
NtRp516
(dp517
g8
S'wader.plugins.novatel_xu870'
p518
sg10
Nsg11
(lp519
g3
(g18
g5
NtRp520
(dp521
g21
(lp522
g23
ag24
asg25
g516
sg26
S'novatelxu870'
p523
sg10
S":class:`~wader.common.plugin.DevicePlugin` for Novatel's XU870"
p524
sbasbsS'huawei_em730v'
p525
g3
(g4
g5
NtRp526
(dp527
g8
S'wader.plugins.huawei_em730v'
p528
sg10
Nsg11
(lp529
sbsS'option_gtm378'
p530
g3
(g4
g5
NtRp531
(dp532
g8
S'wader.plugins.option_gtm378'
p533
sg10
Nsg11
(lp534
g3
(g18
g5
NtRp535
(dp536
g21
(lp537
g23
ag24
asg25
g531
sg26
S'optiongtm378'
p538
sg10
S"\n    :class:`~wader.common.plugin.DevicePlugin` for Option's GTM378\n    "
p539
sbasbsS'dell_d5530'
p540
g3
(g4
g5
NtRp541
(dp542
g8
S'wader.plugins.dell_d5530'
p543
sg10
Nsg11
(lp544
g3
(g18
g5
NtRp545
(dp546
g21
(lp547
g23
ag24
asg25
g541
sg26
S'ericssonD5530'
p548
sg10
S":class:`~wader.common.plugin.DevicePlugin` for Ericsson's Dell D5530"
p549
sbasbsS'novatel_x950d'
p550
g3
(g4
g5
NtRp551
(dp552
g8
S'wader.plugins.novatel_x950d'
p553
sg10
Nsg11
(lp554
g3
(g18
g5
NtRp555
(dp556
g21
(lp557
g23
ag24
asg25
g551
sg26
S'novatelx950d'
p558
sg10
S":class:`~wader.common.plugin.DevicePlugin` for Novatel's X950D"
p559
sbasbsS'novatel_mc950d'
p560
g3
(g4
g5
NtRp561
(dp562
g8
S'wader.plugins.novatel_mc950d'
p563
sg10
Nsg11
(lp564
g3
(g18
g5
NtRp565
(dp566
g21
(lp567
g23
ag24
asg25
g561
sg26
S'novatelmc950d'
p568
sg10
S"\n    :class:`~wader.common.plugin.DevicePlugin` for Novatel's Ovation MC950D\n    "
p569
sbasbsS'novatel_mc990d'
p570
g3
(g4
g5
NtRp571
(dp572
g8
S'wader.plugins.novatel_mc990d'
p573
sg10
Nsg11
(lp574
sbsS'option_globesurfericon'
p575
g3
(g4
g5
NtRp576
(dp577
g8
S'wader.plugins.option_globesurfericon'
p578
sg10
Nsg11
(lp579
g3
(g18
g5
NtRp580
(dp581
g21
(lp582
g23
ag24
asg25
g576
sg26
S'optionglobesurfericon'
p583
sg10
S"\n    :class:`~wader.common.plugin.DevicePlugin` for Options's Globesurfer Icon\n    "
p584
sbasbsS'zte_mf6xx'
p585
g3
(g4
g5
NtRp586
(dp587
g8
S'wader.plugins.zte_mf6xx'
p588
sg10
Nsg11
(lp589
g3
(g18
g5
NtRp590
(dp591
g21
(lp592
g23
ag24
asg25
g586
sg26
S'zte_mf6xx'
p593
sg10
S":class:`~wader.common.plugin.DevicePlugin` for ZTE's MF6XX Family"
p594
sbasbsS'option_etna_ndis'
p595
g3
(g4
g5
NtRp596
(dp597
g8
S'wader.plugins.option_etna_ndis'
p598
sg10
Nsg11
(lp599
g3
(g18
g5
NtRp600
(dp601
g21
(lp602
g23
ag24
asg25
g596
sg26
S'optionetnandis'
p603
sg10
S":class:`~wader.common.plugin.DevicePlugin` for Options's Etna(NDIS)"
p604
sbasbs.