(dp1
S'option_nozomi'
p2
ccopy_reg
_reconstructor
p3
(ctwisted.plugin
CachedDropin
p4
c__builtin__
object
p5
NtRp6
(dp7
S'moduleName'
p8
S'wader.plugins.option_nozomi'
p9
sS'description'
p10
NsS'plugins'
p11
(lp12
g3
(ctwisted.plugin
CachedPlugin
p13
g5
NtRp14
(dp15
S'provided'
p16
(lp17
ctwisted.plugin
IPlugin
p18
acwader.common.interfaces
IDevicePlugin
p19
asS'dropin'
p20
g6
sS'name'
p21
S'option_nozomi'
p22
sg10
S":class:`~wader.common.plugin.DevicePlugin` for Option's Nozomi"
p23
sbasbsS'huawei_em770'
p24
g3
(g4
g5
NtRp25
(dp26
g8
S'wader.plugins.huawei_em770'
p27
sg10
Nsg11
(lp28
sbsS'huawei_e17X'
p29
g3
(g4
g5
NtRp30
(dp31
g8
S'wader.plugins.huawei_e17X'
p32
sg10
Nsg11
(lp33
sbsS'novatel_mother'
p34
g3
(g4
g5
NtRp35
(dp36
g8
S'wader.plugins.novatel_mother'
p37
sg10
Nsg11
(lp38
g3
(g13
g5
NtRp39
(dp40
g16
(lp41
g18
ag19
asg20
g35
sg21
S'novatelmother'
p42
sg10
S"\n    :class:`~wader.common.plugin.DevicePlugin` Novatel's Ovation/MiFi\n    devices that share a common PID\n    "
p43
sbasbsS'novatel_eu740'
p44
g3
(g4
g5
NtRp45
(dp46
g8
S'wader.plugins.novatel_eu740'
p47
sg10
Nsg11
(lp48
g3
(g13
g5
NtRp49
(dp50
g16
(lp51
g18
ag19
asg20
g45
sg21
S'novateleu740'
p52
sg10
S":class:`~wader.common.plugin.DevicePlugin` for Novatel's EU740"
p53
sbasbsS'zte_k2525'
p54
g3
(g4
g5
NtRp55
(dp56
g8
S'wader.plugins.zte_k2525'
p57
sg10
Nsg11
(lp58
g3
(g13
g5
NtRp59
(dp60
g16
(lp61
g18
ag19
asg20
g55
sg21
S'zte_k2525'
p62
sg10
S":class:`~wader.common.plugin.DevicePlugin` for ZTE's K2525"
p63
sbasbsS'option_gtmax36'
p64
g3
(g4
g5
NtRp65
(dp66
g8
S'wader.plugins.option_gtmax36'
p67
sg10
Nsg11
(lp68
g3
(g13
g5
NtRp69
(dp70
g16
(lp71
g18
ag19
asg20
g65
sg21
S'optiongtmax36'
p72
sg10
S":class:`~wader.common.plugin.DevicePlugin` for Option's GT Max 36"
p73
sbasbsS'novatel_s720'
p74
g3
(g4
g5
NtRp75
(dp76
S'moduleName'
p77
S'wader.plugins.novatel_s720'
p78
sS'description'
p79
NsS'plugins'
p80
(lp81
sbsS'ericsson_md300'
p82
g3
(g4
g5
NtRp83
(dp84
S'moduleName'
p85
S'wader.plugins.ericsson_md300'
p86
sS'description'
p87
NsS'plugins'
p88
(lp89
g3
(g13
g5
NtRp90
(dp91
S'provided'
p92
(lp93
g18
ag19
asS'dropin'
p94
g83
sS'name'
p95
S'ericssonMD300'
p96
sg87
S":class:`~wader.common.plugin.DBusDevicePlugin` for Ericsson's MD300"
p97
sbasbsS'huawei_e870'
p98
g3
(g4
g5
NtRp99
(dp100
g8
S'wader.plugins.huawei_e870'
p101
sg10
Nsg11
(lp102
sbsS'zte_mf632'
p103
g3
(g4
g5
NtRp104
(dp105
g8
S'wader.plugins.zte_mf632'
p106
sg10
Nsg11
(lp107
sbsS'sonyericsson_k610i'
p108
g3
(g4
g5
NtRp109
(dp110
g8
S'wader.plugins.sonyericsson_k610i'
p111
sg10
Nsg11
(lp112
g3
(g13
g5
NtRp113
(dp114
g16
(lp115
g18
ag19
asg20
g109
sg21
S'sonyericsson_k610iUSB'
p116
sg10
S':class:`~wader.common.plugin.DevicePlugin` for Sony Ericsson k610i'
p117
sbasbsS'huawei_e660a'
p118
g3
(g4
g5
NtRp119
(dp120
g8
S'wader.plugins.huawei_e660a'
p121
sg10
Nsg11
(lp122
sbsS'huawei_e220'
p123
g3
(g4
g5
NtRp124
(dp125
g8
S'wader.plugins.huawei_e220'
p126
sg10
Nsg11
(lp127
sbsS'huawei_b970'
p128
g3
(g4
g5
NtRp129
(dp130
g8
S'wader.plugins.huawei_b970'
p131
sg10
Nsg11
(lp132
sbsS'novatel_u630'
p133
g3
(g4
g5
NtRp134
(dp135
g8
S'wader.plugins.novatel_u630'
p136
sg10
Nsg11
(lp137
g3
(g13
g5
NtRp138
(dp139
g16
(lp140
g18
ag19
asg20
g134
sg21
S'novatelu630'
p141
sg10
S":class:`~wader.common.plugin.DevicePlugin` for Novatel's U630"
p142
sbasbsS'zte_k3520'
p143
g3
(g4
g5
NtRp144
(dp145
g8
S'wader.plugins.zte_k3520'
p146
sg10
Nsg11
(lp147
g3
(g13
g5
NtRp148
(dp149
g16
(lp150
g18
ag19
asg20
g144
sg21
S'zte_k3520'
p151
sg10
S":class:`~wader.common.plugin.DevicePlugin` for ZTE's K3520"
p152
sbasbsS'huawei_e169'
p153
g3
(g4
g5
NtRp154
(dp155
g8
S'wader.plugins.huawei_e169'
p156
sg10
Nsg11
(lp157
g3
(g13
g5
NtRp158
(dp159
g16
(lp160
g18
ag19
asg20
g154
sg21
S'huaweiE169'
p161
sg10
S":class:`~wader.common.plugin.DevicePlugin` for Huawei's E169"
p162
sbasbsS'huawei_e180'
p163
g3
(g4
g5
NtRp164
(dp165
g8
S'wader.plugins.huawei_e180'
p166
sg10
Nsg11
(lp167
sbsS'option_icon225'
p168
g3
(g4
g5
NtRp169
(dp170
g8
S'wader.plugins.option_icon225'
p171
sg10
Nsg11
(lp172
g3
(g13
g5
NtRp173
(dp174
g16
(lp175
g18
ag19
asg20
g169
sg21
S'optionicon225'
p176
sg10
S":class:`wader.common.plugin.DevicePlugin` for Options's Icon 225"
p177
sbasbsS'huawei_k3565'
p178
g3
(g4
g5
NtRp179
(dp180
g8
S'wader.plugins.huawei_k3565'
p181
sg10
Nsg11
(lp182
sbsS'option_colt'
p183
g3
(g4
g5
NtRp184
(dp185
g8
S'wader.plugins.option_colt'
p186
sg10
S'\nDevicePlugin for Option Colt\n\n(end of life reached)\n'
p187
sg11
(lp188
g3
(g13
g5
NtRp189
(dp190
g16
(lp191
g18
ag19
asg20
g184
sg21
S'optioncolt'
p192
sg10
S':class:`~wader.common.plugin.DevicePlugin` for Option Colt'
p193
sbasbsS'option_e3730'
p194
g3
(g4
g5
NtRp195
(dp196
g8
S'wader.plugins.option_e3730'
p197
sg10
Nsg11
(lp198
g3
(g13
g5
NtRp199
(dp200
g16
(lp201
g18
ag19
asg20
g195
sg21
S'optione3730'
p202
sg10
S"\n    :class:`~wader.common.plugin.DevicePlugin` for Option's E3730\n    "
p203
sbasbsS'novatel_mifi2352'
p204
g3
(g4
g5
NtRp205
(dp206
g8
S'wader.plugins.novatel_mifi2352'
p207
sg10
Nsg11
(lp208
g3
(g13
g5
NtRp209
(dp210
g16
(lp211
g18
ag19
asg20
g205
sg21
S'novatelmifi2352'
p212
sg10
S"\n    :class:`~wader.common.plugin.DevicePlugin` for Novatel's MiFi 2352\n    "
p213
sbasbsS'huawei_exxx'
p214
g3
(g4
g5
NtRp215
(dp216
g8
S'wader.plugins.huawei_exxx'
p217
sg10
Nsg11
(lp218
g3
(g13
g5
NtRp219
(dp220
g16
(lp221
g18
ag19
asg20
g215
sg21
S'huaweiexxx1001'
p222
sg10
S":class:`~wader.common.plugin.DevicePlugin` for Huawei's 1001 family"
p223
sbag3
(g13
g5
NtRp224
(dp225
g16
(lp226
g18
ag19
asg20
g215
sg21
S'huaweiexxx1003'
p227
sg10
S":class:`~wader.common.plugin.DevicePlugin` for Huawei's 1003 family"
p228
sbasbsS'sonyericsson_k618i'
p229
g3
(g4
g5
NtRp230
(dp231
g8
S'wader.plugins.sonyericsson_k618i'
p232
sg10
Nsg11
(lp233
g3
(g13
g5
NtRp234
(dp235
g16
(lp236
g18
acwader.common.interfaces
IRemoteDevicePlugin
p237
ag19
asg20
g230
sg21
S'sonyericsson_k618i'
p238
sg10
S"\n    :class:`~wader.common.plugin.RemoteDevicePlugin` for SonyEricsson's K618i\n    "
p239
sbasbsS'option_icon401'
p240
g3
(g4
g5
NtRp241
(dp242
g8
S'wader.plugins.option_icon401'
p243
sg10
Nsg11
(lp244
g3
(g13
g5
NtRp245
(dp246
g16
(lp247
g18
ag19
asg20
g241
sg21
S'optionicon401'
p248
sg10
S":class:`wader.common.plugin.DevicePlugin` for Options's Icon 401"
p249
sbasbsS'option_etna'
p250
g3
(g4
g5
NtRp251
(dp252
g8
S'wader.plugins.option_etna'
p253
sg10
Nsg11
(lp254
g3
(g13
g5
NtRp255
(dp256
g16
(lp257
g18
ag19
asg20
g251
sg21
S'optionetna'
p258
sg10
S":class:`~wader.common.plugin.DevicePlugin` for Options's Etna"
p259
sbasbsS'huawei_k3520'
p260
g3
(g4
g5
NtRp261
(dp262
g8
S'wader.plugins.huawei_k3520'
p263
sg10
Nsg11
(lp264
sbsS'dell_d5520'
p265
g3
(g4
g5
NtRp266
(dp267
g8
S'wader.plugins.dell_d5520'
p268
sg10
Nsg11
(lp269
g3
(g13
g5
NtRp270
(dp271
g16
(lp272
g18
ag19
asg20
g266
sg21
S'novateld5520'
p273
sg10
S":class:`~wader.common.plugin.DevicePlugin` for Novatel's Dell D5520"
p274
sbasbsS'sierrawireless_875'
p275
g3
(g4
g5
NtRp276
(dp277
g8
S'wader.plugins.sierrawireless_875'
p278
sg10
S'DevicePlugin for the Sierra Wireless 875 datacard'
p279
sg11
(lp280
g3
(g13
g5
NtRp281
(dp282
g16
(lp283
g18
ag19
asg20
g276
sg21
S'sierrawireless875'
p284
sg10
S':class:`~wader.common.plugin.DevicePlugin` for SierraWireless 875'
p285
sbasbsS'sierrawireless_850'
p286
g3
(g4
g5
NtRp287
(dp288
g8
S'wader.plugins.sierrawireless_850'
p289
sg10
S'DevicePlugin for the Sierra Wireless 850 datacard'
p290
sg11
(lp291
g3
(g13
g5
NtRp292
(dp293
g16
(lp294
g18
ag19
asg20
g287
sg21
S'sierrawireless850'
p295
sg10
S':class:`~wader.common.plugin.DevicePlugin` for SierraWireless 850'
p296
sbasbsS'option_gtfusion'
p297
g3
(g4
g5
NtRp298
(dp299
g8
S'wader.plugins.option_gtfusion'
p300
sg10
Nsg11
(lp301
g3
(g13
g5
NtRp302
(dp303
g16
(lp304
g18
ag19
asg20
g298
sg21
S'optiongtfusion'
p305
sg10
S"\n    :class:`~wader.common.plugin.DevicePlugin` for Option's GT Fusion\n    "
p306
sbasbsS'option_k3760'
p307
g3
(g4
g5
NtRp308
(dp309
g8
S'wader.plugins.option_k3760'
p310
sg10
Nsg11
(lp311
g3
(g13
g5
NtRp312
(dp313
g16
(lp314
g18
ag19
asg20
g308
sg21
S'option_k3760'
p315
sg10
S":class:`wader.common.plugin.DevicePlugin` for Options's K3760"
p316
sbasbsS'onda_msa405hs'
p317
g3
(g4
g5
NtRp318
(dp319
g8
S'wader.plugins.onda_msa405hs'
p320
sg10
Nsg11
(lp321
g3
(g13
g5
NtRp322
(dp323
g16
(lp324
g18
ag19
asg20
g318
sg21
S'onda_msa405hs'
p325
sg10
S":class:`~wader.common.plugin.DevicePlugin` for ONDA's MSA405HS"
p326
sbasbsS'novatel_u740'
p327
g3
(g4
g5
NtRp328
(dp329
g8
S'wader.plugins.novatel_u740'
p330
sg10
Nsg11
(lp331
g3
(g13
g5
NtRp332
(dp333
g16
(lp334
g18
ag19
asg20
g328
sg21
S'novatelu740'
p335
sg10
S":class:`~wader.common.plugin.DevicePlugin` for Novatel's U740"
p336
sbasbsS'huawei_e270'
p337
g3
(g4
g5
NtRp338
(dp339
g8
S'wader.plugins.huawei_e270'
p340
sg10
Nsg11
(lp341
sbsS'huawei_e272'
p342
g3
(g4
g5
NtRp343
(dp344
g8
S'wader.plugins.huawei_e272'
p345
sg10
Nsg11
(lp346
sbsS'novatel_mc990d'
p347
g3
(g4
g5
NtRp348
(dp349
g8
S'wader.plugins.novatel_mc990d'
p350
sg10
Nsg11
(lp351
sbsS'option_gtfusionquadlite'
p352
g3
(g4
g5
NtRp353
(dp354
g8
S'wader.plugins.option_gtfusionquadlite'
p355
sg10
Nsg11
(lp356
g3
(g13
g5
NtRp357
(dp358
g16
(lp359
g18
ag19
asg20
g353
sg21
S'optiongtfusionquadlite'
p360
sg10
S"\n    :class:`~wader.common.plugin.DevicePlugin` for Option's GT Fusion Quad Lite\n    "
p361
sbasbsS'sierrawireless_mc8755'
p362
g3
(g4
g5
NtRp363
(dp364
g8
S'wader.plugins.sierrawireless_mc8755'
p365
sg10
S'\nDevicePlugin for the HP branded Sierra Wireless MC8755 embedded device\n'
p366
sg11
(lp367
g3
(g13
g5
NtRp368
(dp369
g16
(lp370
g18
ag19
asg20
g363
sg21
S'sierrawirelessmc8755'
p371
sg10
S':class:`~wader.common.plugin.DevicePlugin` for SierraWireless MC 8755'
p372
sbasbsS'huawei_e510'
p373
g3
(g4
g5
NtRp374
(dp375
g8
S'wader.plugins.huawei_e510'
p376
sg10
Nsg11
(lp377
g3
(g13
g5
NtRp378
(dp379
g16
(lp380
g18
ag19
asg20
g374
sg21
S'huaweie510'
p381
sg10
S":class:`~wader.common.plugin.DevicePlugin` for Huawei's E510"
p382
sbasbsS'huawei_e620'
p383
g3
(g4
g5
NtRp384
(dp385
g8
S'wader.plugins.huawei_e620'
p386
sg10
Nsg11
(lp387
sbsS'huawei_e660'
p388
g3
(g4
g5
NtRp389
(dp390
g8
S'wader.plugins.huawei_e660'
p391
sg10
Nsg11
(lp392
sbsS'zte_k3765'
p393
g3
(g4
g5
NtRp394
(dp395
g8
S'wader.plugins.zte_k3765'
p396
sg10
Nsg11
(lp397
g3
(g13
g5
NtRp398
(dp399
g16
(lp400
g18
ag19
asg20
g394
sg21
S'zte_k3765'
p401
sg10
S":class:`~wader.common.plugin.DevicePlugin` for ZTE's K3765-Z"
p402
sbasbsS'huawei_k3715'
p403
g3
(g4
g5
NtRp404
(dp405
g8
S'wader.plugins.huawei_k3715'
p406
sg10
Nsg11
(lp407
sbsS'ericsson_f3507g'
p408
g3
(g4
g5
NtRp409
(dp410
g8
S'wader.plugins.ericsson_f3507g'
p411
sg10
Nsg11
(lp412
g3
(g13
g5
NtRp413
(dp414
g16
(lp415
g18
ag19
asg20
g409
sg21
S'ericssonF3507G'
p416
sg10
S":class:`~wader.common.plugin.DevicePlugin} for Ericsson's F3507G"
p417
sbasbsS'huawei_e3735'
p418
g3
(g4
g5
NtRp419
(dp420
g8
S'wader.plugins.huawei_e3735'
p421
sg10
Nsg11
(lp422
sbsS'huawei_k2540'
p423
g3
(g4
g5
NtRp424
(dp425
g8
S'wader.plugins.huawei_k2540'
p426
sg10
Nsg11
(lp427
sbsS'zte_k3565'
p428
g3
(g4
g5
NtRp429
(dp430
g8
S'wader.plugins.zte_k3565'
p431
sg10
Nsg11
(lp432
g3
(g13
g5
NtRp433
(dp434
g16
(lp435
g18
ag19
asg20
g429
sg21
S'zte_k3565'
p436
sg10
S'\n    :class:`~wader.common.plugin.DevicePlugin` for ZTE K3565-Z\n    '
p437
sbasbsS'zte_k4505'
p438
g3
(g4
g5
NtRp439
(dp440
g8
S'wader.plugins.zte_k4505'
p441
sg10
Nsg11
(lp442
g3
(g13
g5
NtRp443
(dp444
g16
(lp445
g18
ag19
asg20
g439
sg21
S'zte_k4505'
p446
sg10
S"\n    :class:`~wader.common.plugin.DevicePlugin` for ZTE's K4505\n    "
p447
sbasbsS'devices'
p448
g3
(g4
g5
NtRp449
(dp450
g77
S'wader.plugins.devices'
p451
sg79
Nsg80
(lp452
sbsS'novatel_eu870d'
p453
g3
(g4
g5
NtRp454
(dp455
g8
S'wader.plugins.novatel_eu870d'
p456
sg10
Nsg11
(lp457
g3
(g13
g5
NtRp458
(dp459
g16
(lp460
g18
ag19
asg20
g454
sg21
S'novateleu870d'
p461
sg10
S"\n    :class:`~wader.common.plugin.DevicePlugin` for Novatel's EU870D MiniCard\n    "
p462
sbasbsS'novatel_xu870'
p463
g3
(g4
g5
NtRp464
(dp465
g8
S'wader.plugins.novatel_xu870'
p466
sg10
Nsg11
(lp467
g3
(g13
g5
NtRp468
(dp469
g16
(lp470
g18
ag19
asg20
g464
sg21
S'novatelxu870'
p471
sg10
S":class:`~wader.common.plugin.DevicePlugin` for Novatel's XU870"
p472
sbasbsS'huawei_em730v'
p473
g3
(g4
g5
NtRp474
(dp475
g8
S'wader.plugins.huawei_em730v'
p476
sg10
Nsg11
(lp477
sbsS'option_gtm378'
p478
g3
(g4
g5
NtRp479
(dp480
g8
S'wader.plugins.option_gtm378'
p481
sg10
Nsg11
(lp482
g3
(g13
g5
NtRp483
(dp484
g16
(lp485
g18
ag19
asg20
g479
sg21
S'optiongtm378'
p486
sg10
S"\n    :class:`~wader.common.plugin.DevicePlugin` for Option's GTM378\n    "
p487
sbasbsS'dell_d5530'
p488
g3
(g4
g5
NtRp489
(dp490
g8
S'wader.plugins.dell_d5530'
p491
sg10
Nsg11
(lp492
g3
(g13
g5
NtRp493
(dp494
g16
(lp495
g18
ag19
asg20
g489
sg21
S'ericssonD5530'
p496
sg10
S":class:`~wader.common.plugin.DevicePlugin} for Ericsson's Dell D5530"
p497
sbasbsS'novatel_x950d'
p498
g3
(g4
g5
NtRp499
(dp500
g8
S'wader.plugins.novatel_x950d'
p501
sg10
Nsg11
(lp502
g3
(g13
g5
NtRp503
(dp504
g16
(lp505
g18
ag19
asg20
g499
sg21
S'novatelx950d'
p506
sg10
S":class:`~wader.common.plugin.DevicePlugin` for Novatel's X950D"
p507
sbasbsS'novatel_mc950d'
p508
g3
(g4
g5
NtRp509
(dp510
g8
S'wader.plugins.novatel_mc950d'
p511
sg10
Nsg11
(lp512
g3
(g13
g5
NtRp513
(dp514
g16
(lp515
g18
ag19
asg20
g509
sg21
S'novatelmc950d'
p516
sg10
S":class:`~wader.common.plugin.DevicePlugin` for Novatel's Ovation MC950D"
p517
sbasbsS'zte_mf620'
p518
g3
(g4
g5
NtRp519
(dp520
g8
S'wader.plugins.zte_mf620'
p521
sg10
Nsg11
(lp522
sbsS'option_globesurfericon'
p523
g3
(g4
g5
NtRp524
(dp525
g8
S'wader.plugins.option_globesurfericon'
p526
sg10
Nsg11
(lp527
g3
(g13
g5
NtRp528
(dp529
g16
(lp530
g18
ag19
asg20
g524
sg21
S'optionglobesurfericon'
p531
sg10
S"\n    :class:`~wader.common.plugin.DevicePlugin` for Options's Globesurfer Icon\n    "
p532
sbasbsS'zte_mf6xx'
p533
g3
(g4
g5
NtRp534
(dp535
g8
S'wader.plugins.zte_mf6xx'
p536
sg10
Nsg11
(lp537
g3
(g13
g5
NtRp538
(dp539
g16
(lp540
g18
ag19
asg20
g534
sg21
S'zte_mf6xx'
p541
sg10
S":class:`~wader.common.plugin.DevicePlugin` for ZTE's MF6XX Family"
p542
sbasbs.